target datalayout = "e-m:e-p270:32:32-p271:32:32-p272:64:64-i64:64-i128:128-f80:128-n8:16:32:64-S128"
target triple = "x86_64-pc-linux-gnu"

%struct.ossl_param_st = type { ptr, i32, ptr, i64, i64 }

@.str.1 = private unnamed_addr constant [6 x i8] c"DHKEM\00", align 1
@.str.2 = private unnamed_addr constant [10 x i8] c"operation\00", align 1
@.str.3 = private unnamed_addr constant [38 x i8] c"../openssl/test/evp_pkey_dhkem_test.c\00", align 1
@rctx = internal global [2 x ptr] zeroinitializer, align 16
@.str.46 = private unnamed_addr constant [5 x i8] c"ikme\00", align 1
@.str.50 = private unnamed_addr constant [2 x i8] c"1\00", align 1
@.str.74 = private unnamed_addr constant [2 x i8] c"0\00", align 1
@.str.78 = private unnamed_addr constant [39 x i8] c"EVP_PKEY_encapsulate_init(ctx, params)\00", align 1
@.str.79 = private unnamed_addr constant [60 x i8] c"EVP_PKEY_encapsulate(ctx, enc, &enclen, secret, &secretlen)\00", align 1

; Function Attrs: nounwind uwtable
define internal i32 @test_ikm_small(i32 noundef %0) #0 {
  %2 = alloca i32, align 4
  %3 = alloca [16 x i8], align 16
  %4 = alloca [256 x i8], align 16
  %5 = alloca [256 x i8], align 16
  %6 = alloca i64, align 8
  %7 = alloca i64, align 8
  %8 = alloca [3 x %struct.ossl_param_st], align 16
  %9 = alloca ptr, align 8
  %10 = alloca %struct.ossl_param_st, align 8
  %11 = alloca %struct.ossl_param_st, align 8
  %12 = alloca %struct.ossl_param_st, align 8
  store i32 %0, ptr %2, align 4, !tbaa !10
  call void @llvm.lifetime.start.p0(i64 16, ptr %3) #6
  call void @llvm.memset.p0.i64(ptr align 16 %3, i8 0, i64 16, i1 false)
  call void @llvm.lifetime.start.p0(i64 256, ptr %4) #6
  call void @llvm.lifetime.start.p0(i64 256, ptr %5) #6
  call void @llvm.lifetime.start.p0(i64 8, ptr %6) #6
  store i64 256, ptr %6, align 8, !tbaa !13
  call void @llvm.lifetime.start.p0(i64 8, ptr %7) #6
  store i64 256, ptr %7, align 8, !tbaa !13
  call void @llvm.lifetime.start.p0(i64 120, ptr %8) #6
  call void @llvm.lifetime.start.p0(i64 8, ptr %9) #6
  %13 = load i32, ptr %2, align 4, !tbaa !10
  %14 = sext i32 %13 to i64
  %15 = getelementptr inbounds [2 x ptr], ptr @rctx, i64 0, i64 %14
  %16 = load ptr, ptr %15, align 8, !tbaa !19
  store ptr %16, ptr %9, align 8, !tbaa !19
  %17 = getelementptr inbounds [3 x %struct.ossl_param_st], ptr %8, i64 0, i64 0
  call void @llvm.lifetime.start.p0(i64 40, ptr %10) #6
  call void @OSSL_PARAM_construct_utf8_string(ptr dead_on_unwind writable sret(%struct.ossl_param_st) align 8 %10, ptr noundef @.str.2, ptr noundef @.str.1, i64 noundef 0)
  call void @llvm.memcpy.p0.p0.i64(ptr align 16 %17, ptr align 8 %10, i64 40, i1 false), !tbaa.struct !9
  call void @llvm.lifetime.end.p0(i64 40, ptr %10) #6
  %18 = getelementptr inbounds [3 x %struct.ossl_param_st], ptr %8, i64 0, i64 1
  call void @llvm.lifetime.start.p0(i64 40, ptr %11) #6
  %19 = getelementptr inbounds [16 x i8], ptr %3, i64 0, i64 0
  call void @OSSL_PARAM_construct_octet_string(ptr dead_on_unwind writable sret(%struct.ossl_param_st) align 8 %11, ptr noundef @.str.46, ptr noundef %19, i64 noundef 16)
  call void @llvm.memcpy.p0.p0.i64(ptr align 8 %18, ptr align 8 %11, i64 40, i1 false), !tbaa.struct !9
  call void @llvm.lifetime.end.p0(i64 40, ptr %11) #6
  %20 = getelementptr inbounds [3 x %struct.ossl_param_st], ptr %8, i64 0, i64 2
  call void @llvm.lifetime.start.p0(i64 40, ptr %12) #6
  call void @OSSL_PARAM_construct_end(ptr dead_on_unwind writable sret(%struct.ossl_param_st) align 8 %12)
  call void @llvm.memcpy.p0.p0.i64(ptr align 16 %20, ptr align 8 %12, i64 40, i1 false), !tbaa.struct !9
  call void @llvm.lifetime.end.p0(i64 40, ptr %12) #6
  %21 = load ptr, ptr %9, align 8, !tbaa !19
  %22 = getelementptr inbounds [3 x %struct.ossl_param_st], ptr %8, i64 0, i64 0
  %23 = call i32 @EVP_PKEY_encapsulate_init(ptr noundef %21, ptr noundef %22)
  %24 = call i32 @test_int_eq(ptr noundef @.str.3, i32 noundef 200, ptr noundef @.str.78, ptr noundef @.str.50, i32 noundef %23, i32 noundef 1)
  %25 = icmp ne i32 %24, 0
  br i1 %25, label %26, label %33

26:                                               ; preds = %1
  %27 = load ptr, ptr %9, align 8, !tbaa !19
  %28 = getelementptr inbounds [256 x i8], ptr %5, i64 0, i64 0
  %29 = getelementptr inbounds [256 x i8], ptr %4, i64 0, i64 0
  %30 = call i32 @EVP_PKEY_encapsulate(ptr noundef %27, ptr noundef %28, ptr noundef %7, ptr noundef %29, ptr noundef %6)
  %31 = call i32 @test_int_eq(ptr noundef @.str.3, i32 noundef 202, ptr noundef @.str.79, ptr noundef @.str.74, i32 noundef %30, i32 noundef 0)
  %32 = icmp ne i32 %31, 0
  br label %33

33:                                               ; preds = %26, %1
  %34 = phi i1 [ false, %1 ], [ %32, %26 ]
  %35 = zext i1 %34 to i32
  call void @llvm.lifetime.end.p0(i64 8, ptr %9) #6
  call void @llvm.lifetime.end.p0(i64 120, ptr %8) #6
  call void @llvm.lifetime.end.p0(i64 8, ptr %7) #6
  call void @llvm.lifetime.end.p0(i64 8, ptr %6) #6
  call void @llvm.lifetime.end.p0(i64 256, ptr %5) #6
  call void @llvm.lifetime.end.p0(i64 256, ptr %4) #6
  call void @llvm.lifetime.end.p0(i64 16, ptr %3) #6
  ret i32 %35
}