; Function Attrs: nounwind uwtable
define internal range(i32 0, 2) i32 @test_ikm_small(i32 noundef %0) #0 {
  %2 = alloca [16 x i8], align 16
  %3 = alloca [256 x i8], align 16
  %4 = alloca [256 x i8], align 16
  %5 = alloca i64, align 8
  %6 = alloca i64, align 8
  %7 = alloca [3 x %struct.ossl_param_st], align 16
  %8 = alloca %struct.ossl_param_st, align 8
  %9 = alloca %struct.ossl_param_st, align 8
  call void @llvm.lifetime.start.p0(i64 16, ptr nonnull %2) #5
  call void @llvm.memset.p0.i64(ptr noundef nonnull align 16 dereferenceable(16) %2, i8 0, i64 16, i1 false)
  call void @llvm.lifetime.start.p0(i64 256, ptr nonnull %3) #5
  call void @llvm.lifetime.start.p0(i64 256, ptr nonnull %4) #5
  call void @llvm.lifetime.start.p0(i64 8, ptr nonnull %5) #5
  store i64 256, ptr %5, align 8, !tbaa !13
  call void @llvm.lifetime.start.p0(i64 8, ptr nonnull %6) #5
  store i64 256, ptr %6, align 8, !tbaa !13
  call void @llvm.lifetime.start.p0(i64 120, ptr nonnull %7) #5
  %10 = sext i32 %0 to i64
  %11 = getelementptr inbounds [2 x ptr], ptr @rctx, i64 0, i64 %10
  %12 = load ptr, ptr %11, align 8, !tbaa !19
  call void @OSSL_PARAM_construct_utf8_string(ptr dead_on_unwind nonnull writable sret(%struct.ossl_param_st) align 8 %7, ptr noundef nonnull @.str.2, ptr noundef nonnull @.str.1, i64 noundef 0) #5
  %13 = getelementptr inbounds nuw i8, ptr %7, i64 40
  call void @llvm.lifetime.start.p0(i64 40, ptr nonnull %8) #5
  call void @OSSL_PARAM_construct_octet_string(ptr dead_on_unwind nonnull writable sret(%struct.ossl_param_st) align 8 %8, ptr noundef nonnull @.str.46, ptr noundef nonnull %2, i64 noundef 16) #5
  call void @llvm.memcpy.p0.p0.i64(ptr noundef nonnull align 8 dereferenceable(40) %13, ptr noundef nonnull align 8 dereferenceable(40) %8, i64 40, i1 false), !tbaa.struct !4
  call void @llvm.lifetime.end.p0(i64 40, ptr nonnull %8) #5
  %14 = getelementptr inbounds nuw i8, ptr %7, i64 80
  call void @llvm.lifetime.start.p0(i64 40, ptr nonnull %9) #5
  call void @OSSL_PARAM_construct_end(ptr dead_on_unwind nonnull writable sret(%struct.ossl_param_st) align 8 %9) #5
  call void @llvm.memcpy.p0.p0.i64(ptr noundef nonnull align 16 dereferenceable(40) %14, ptr noundef nonnull align 8 dereferenceable(40) %9, i64 40, i1 false), !tbaa.struct !4
  call void @llvm.lifetime.end.p0(i64 40, ptr nonnull %9) #5
  %15 = call i32 @EVP_PKEY_encapsulate_init(ptr noundef %12, ptr noundef nonnull %7) #5
  %16 = call i32 @test_int_eq(ptr noundef nonnull @.str.3, i32 noundef 200, ptr noundef nonnull @.str.78, ptr noundef nonnull @.str.50, i32 noundef %15, i32 noundef 1) #5
  %.not = icmp eq i32 %16, 0
  br i1 %.not, label %22, label %17

17:                                               ; preds = %1
  %18 = call i32 @EVP_PKEY_encapsulate(ptr noundef %12, ptr noundef nonnull %4, ptr noundef nonnull %6, ptr noundef nonnull %3, ptr noundef nonnull %5) #5
  %19 = call i32 @test_int_eq(ptr noundef nonnull @.str.3, i32 noundef 202, ptr noundef nonnull @.str.79, ptr noundef nonnull @.str.74, i32 noundef %18, i32 noundef 0) #5
  %20 = icmp ne i32 %19, 0
  %21 = zext i1 %20 to i32
  br label %22

22:                                               ; preds = %17, %1
  %23 = phi i32 [ 0, %1 ], [ %21, %17 ]
  call void @llvm.lifetime.end.p0(i64 120, ptr nonnull %7) #5
  call void @llvm.lifetime.end.p0(i64 8, ptr nonnull %6) #5
  call void @llvm.lifetime.end.p0(i64 8, ptr nonnull %5) #5
  call void @llvm.lifetime.end.p0(i64 256, ptr nonnull %4) #5
  call void @llvm.lifetime.end.p0(i64 256, ptr nonnull %3) #5
  call void @llvm.lifetime.end.p0(i64 16, ptr nonnull %2) #5
  ret i32 %23
}